; Function Attrs: mustprogress uwtable
define void @Z3_global_param_reset_all() local_unnamed_addr #3 personality ptr @__gxx_personality_v0 {
entry:
  tail call void @_ZN6memory10initializeEm(i64 noundef 4294967295)
  %0 = atomicrmw xchg ptr @g_z3_log_enabled, i8 0 seq_cst, align 1
  %1 = and i8 %0, 1
  %tobool.i.not = icmp eq i8 %1, 0
  br i1 %tobool.i.not, label %if.end, label %if.then

if.then:                                          ; preds = %entry
  invoke void @_Z29log_Z3_global_param_reset_allv()
          to label %if.end unwind label %lpad.thread

lpad.thread:                                      ; preds = %if.then
  %2 = landingpad { ptr, i32 }
          cleanup
  br label %if.then.i

lpad:                                             ; preds = %invoke.cont2, %if.end
  %3 = landingpad { ptr, i32 }
          cleanup
  br i1 %tobool.i.not, label %_ZN10z3_log_ctxD2Ev.exit, label %if.then.i

if.then.i:                                        ; preds = %lpad.thread, %lpad
  %4 = phi { ptr, i32 } [ %2, %lpad.thread ], [ %3, %lpad ]
  store atomic i8 1, ptr @g_z3_log_enabled seq_cst, align 1
  br label %_ZN10z3_log_ctxD2Ev.exit

_ZN10z3_log_ctxD2Ev.exit:                         ; preds = %lpad, %if.then.i
  %5 = phi { ptr, i32 } [ %3, %lpad ], [ %4, %if.then.i ]
  resume { ptr, i32 } %5

if.end:                                           ; preds = %if.then, %entry
  invoke void @_ZN7gparams5resetEv()
          to label %invoke.cont2 unwind label %lpad

invoke.cont2:                                     ; preds = %if.end
  invoke void @_ZN10env_params11updt_paramsEv()
          to label %invoke.cont3 unwind label %lpad

invoke.cont3:                                     ; preds = %invoke.cont2
  br i1 %tobool.i.not, label %_ZN10z3_log_ctxD2Ev.exit3, label %if.then.i2

if.then.i2:                                       ; preds = %invoke.cont3
  store atomic i8 1, ptr @g_z3_log_enabled seq_cst, align 1
  br label %_ZN10z3_log_ctxD2Ev.exit3

_ZN10z3_log_ctxD2Ev.exit3:                        ; preds = %invoke.cont3, %if.then.i2
  ret void
}